(lp0
I902963478
aI3369330322
aI14957147
aI103450994
aI2525375252
aI15415098
aI906819984
aI1117702844
aI358367825
aI48278272
aI14412533
aI13524182
aI236026761
aI852269288
aI2574103121
aI9692022
aI634734888
aI3057617662
aI1140451
aI14651099
aI16569274
aI16031927
aI22047070
aI41634520
aI23970102
aI50769180
aI27744185
aI35474809
aI48523859
aI2182412918
aI174880041
aI156370763
aI245107888
aI18914786
aI18236500
aI18905119
aI37917164
aI17004139
aI16211356
aI1105302156
aI2319314594
aI33792634
aI1572823628
aI188587219
aI47652744
aI70989872
aI134599244
aI13967302
aI613612212
aI339925767
aI192267295
aI65375759
aI243291022
aI56223278
aI48144950
aI164412502
aI542933180
aI21111896
aI30249306
aI18776942
aI2189535763
aI1737675500
aI338779219
aI369206130
aI27901418
aI108617810
aI24016690
aI365606287
aI17092444
aI15224867
aI71294756
aI68261372
aI14329880
aI95288087
aI17004618
aI59145948
aI59157393
aI69181624
aI41814169
aI184090947
aI124690469
aI114028457
aI2687990413
aI552158902
aI756331316
aI1723764397
aI1372792136
aI982084890
aI22023222
aI377430134
aI16598767
aI248937236
aI15384969
aI5611932
aI2329066872
aI275186860
aI170254080
aI371828170
aI913447502
aI415854742
aI171691486
aI20608910
aI282735852
aI17074440
aI2355032443
aI118938550
aI21307076
aI15931637
aI184136149
aI48802204
aI21619519
aI47438401
aI224320485
aI89820928
aI50325797
aI1611519468
aI19608273
aI908496738
aI137395584
aI177052107
aI121489431
aI20665221
aI17488736
aI16160267
aI74323323
aI16228479
aI414962189
aI709732368
aI51080280
aI41177378
aI17418770
aI2431889416
aI332914487
aI23951431
aI22866294
aI83876527
aI792329258
aI55711637
aI343544165
aI963176808
aI93191667
aI65045121
aI912777090
aI28409795
aI16211073
aI194129729
aI60625744
aI38773694
aI399156475
aI18064482
aI111712308
aI75630518
aI5971922
aI29770501
aI142653593
aI557180207
aI171283600
aI204937371
aI2738013547
aI226346115
aI56768257
aI247323635
aI1634248890
aI316389142
aI24865602
aI23047519
aI87502184
aI746026026
aI130936280
aI203071854
aI289420613
aI22063600
aI15845694
aI714891474
aI552119602
aI19263858
aI116625196
aI28819793
aI48973246
aI16537865
aI447860162
aI124574786
aI34103443
aI563819203
aI27737053
aI601803276
aI959648929
aI14046504
aI8548612
aI19347833
aI14344784
aI18570258
aI1459232030
aI31190530
aI23588075
aI36918513
aI340418291
aI250734793
aI258654427
aI24843232
aI22208499
aI385799764
aI22211969
aI52189673
aI1383127326
aI193398195
aI33276161
aI57917441
aI24454091
aI628698827
aI268282057
aI869825995
aI857090977
aI26603208
aI24922040
aI571096993
aI39189488
aI26862045
aI38535659
aI14626143
aI622024793
aI1283861846
aI353375975
aI41363024
aI1300057027
aI297093555
aI2225653322
aI19119809
aI2423872334
aI1286312880
aI1374150470
aI24721726
aI2517988075
aI33786971
aI108691306
aI43532023
aI199400127
aI21708305
aI21144314
aI25024313
aI237119773
aI15161984
aI2421272142
aI47705588
aI15041273
aI633
aI22416658
aI5502502
aI246941599
aI431700627
aI15642209
aI85867265
aI38710152
aI162895251
aI87952127
aI315889745
aI822158270
aI1543877113
aI905028906
aI111339670
aI37551562
aI99718121
aI23410776
aI14155907
aI308631257
aI290101954
aI258453217
aI7306602
aI464076088
aI15776713
aI117543420
aI224698363
aI1467777354
aI161309598
aI18979104
aI724416918
aI206254134
aI72763332
aI133048642
aI2373784958
aI22320092
aI66533920
aI84816752
aI373578868
aI148841224
aI143211292
aI17580293
aI51892045
aI149857245
aI575831983
aI157075236
aI1240386889
aI20708895
aI167148421
aI229144579
aI263480697
aI188809568
aI883153867
aI48081662
aI18468410
aI5692122
aI26109736
aI973087261
aI24615237
aI12849262
aI525422897
aI40197402
aI59865242
aI23025730
aI1078145022
aI20876806
aI318518392
aI384915512
aI19377975
aI53892543
aI1001734520
aI1260571208
aI232145151
aI1063526059
aI1027678579
aI32078497
aI465158654
aI846187382
aI391583285
aI393705173
aI792659
aI48132847
aI52520517
aI15983110
aI46458101
aI375760645
aI1081296481
aI15407632
aI241252324
aI14764240
aI21928361
aI117810351
aI82653611
aI47408060
aI50367908
aI824859920
aI52652974
aI147092180
aI50395544
aI724575481
aI21759817
aI23813887
aI122868055
aI874911296
aI531239062
aI550010708
aI462319753
aI53144377
aI203060129
aI218597735
aI606776750
aI15818978
aI759786534
aI25946632
aI111631851
aI628996868
aI19519071
aI840183888
aI369756634
aI389658589
aI804295
aI16151881
aI336218991
aI7845362
aI115441158
aI21266943
aI14245378
aI46877654
aI220727844
aI61681958
aI59547153
aI16021468
aI92063809
aI321589427
aI435287678
aI9715012
aI18641382
aI384923143
aI20622592
aI20728540
aI10886522
aI85913172
aI77540359
aI120181944
aI194713944
aI21016633
aI104868688
aI21844284
aI812185596
aI65801609
aI38214152
aI25344328
aI37501003
aI142856124
aI176745481
aI460470940
aI17688714
aI18839937
aI18963809
aI16019108
aI198584761
aI105334381
aI453319164
aI18164272
aI16960279
aI22184329
aI21912466
aI603803238
aI65016485
aI73260098
aI121179433
aI61083476
aI30949256
aI125115830
aI770648450
aI213722368
aI515931365
aI323348247
aI150808638
aI757917865
aI12655722
aI5743162
aI197434444
aI550612446
aI524434283
aI313091751
aI581053112
aI566603099
aI171245049
aI313070057
aI18771370
aI48166344
aI25758575
aI460338364
aI356564509
aI36764306
aI15982292
aI30050899
aI15859912
aI52615210
aI15694863
aI18587457
aI15808218
aI46424263
aI15941955
aI182054545
aI115132132
aI602781685
aI22059385
aI266715173
aI15173859
aI22381639
aI22870101
aI174272266
aI304814848
aI600581963
aI437561031
aI14115926
aI16014522
aI18730427
aI376445133
aI25342485
aI27239121
aI14056708
aI330502724
aI16007312
aI81381301
aI61550116
aI55575557
aI70706313
aI14269768
aI160010755
aI118177842
aI116009193
aI24612021
aI143560069
aI348010835
aI16035632
aI22883726
aI17328222
aI30752163
aI224739244
aI338608917
aI58113946
aI17006036
aI369278149
aI24932852
aI43464027
aI34642256
aI21093785
aI54619276
aI43694024
aI35831704
aI161086220
aI17604772
aI20406724
aI82296803
aI16146513
aI95418595
aI380346763
aI96637391
aI7900962
aI20707070
aI539607474
aI150151712
aI121827883
aI5907272
aI301012485
aI278365203
aI65946380
aI810129
aI28796289
aI17928145
aI8192222
aI34707884
aI318426183
aI14116797
aI40758652
aI489798785
aI405736720
aI60622156
aI82217548
aI18544958
aI4099171
aI385150802
aI23601242
aI275393723
aI429227921
aI15529625
aI494583213
aI18989685
aI13676552
aI93236063
aI14368074
aI313557365
aI460858220
aI14766317
aI241288268
aI392219074
aI219322906
aI475286355
aI395172492
aI14195941
aI14302121
aI88374158
aI385761581
aI141834186
aI32331111
aI371032581
aI9635852
aI49697450
aI481562567
aI4035141
aI348149036
aI327508167
aI340441440
aI167792994
aI466519303
aI385642004
aI478203018
aI15347711
aI69193833
aI49164309
aI38413836
aI15246892
aI51426896
aI363809948
aI32207712
aI152103928
aI68799810
aI309126296
aI18348376
aI357071409
aI233865466
aI279760167
aI25108518
aI448554341
aI429843808
aI49184040
aI338849357
aI353318426
aI95453197
aI377725125
aI23725029
aI30490986
aI3459051
aI18393773
aI19608297
aI38010785
aI14858000
aI14266598
aI11107172
aI305766622
aI75357513
aI20890869
aI15607662
aI88392301
aI45585297
aI248239533
aI16973333
aI145097709
aI275162328
aI84653850
aI383071230
aI109616337
aI17432964
aI362682936
aI16077147
aI15906481
aI12764042
aI14615094
aI378707542
aI21295042
aI15334380
aI18732627
aI17144115
aI88673078
aI319675272
aI92854623
aI99846591
aI23995748
aI309937733
aI380160016
aI121215979
aI16409110
aI233806913
aI380440302
aI389556180
aI41891860
aI14483124
aI14202246
aI7868832
aI33347217
aI335972576
aI14927297
aI40754566
aI359509980
aI115463768
aI335369838
aI243030753
aI17174089
aI12331222
aI167594814
aI221961841
aI118530377
aI19168381
aI234535697
aI25757924
aI217064621
aI330361451
aI184515406
aI145863712
aI85322445
aI334332822
aI41431213
aI50381166
aI4207961
aI15939596
aI241056520
aI14478046
aI16664012
aI316901024
aI29283
aI16317345
aI65491933
aI50310311
aI21293089
aI25889985
aI62381935
aI329030876
aI297556877
aI154045477
aI61041599
aI21005767
aI159770347
aI240369959
aI34002725
aI308081840
aI18982396
aI29465136
aI27668977
aI17453527
aI50496857
aI47349506
aI77314692
aI38060296
aI20247648
aI26687888
aI16742541
aI49633388
aI27071068
aI29745133
aI15503210
aI16195030
aI116513449
aI107137730
aI24392311
aI24044209
aI13496142
aI23353857
aI14208881
aI18974406
aI123282802
aI168894140
aI27793335
aI24932461
aI17830242
aI28944041
aI17290902
aI20419924
aI25368431
aI212657985
aI21220583
aI186545080
aI34423941
aI48203749
aI29538495
aI15822295
aI75033178
aI78890225
aI86224590
aI125726393
aI19733025
aI39309168
aI15949253
aI14335586
aI226963044
aI255882510
aI176233506
aI52105542
aI17150156
aI2568461
aI18355386
aI15480029
aI167501580
aI17425602
aI202225200
aI16744136
aI46229870
aI53660409
aI55411896
aI101557323
aI15649736
aI22644417
aI15893116
aI84030041
aI32412540
aI168295477
aI262817156
aI25003152
aI15675013
aI16565806
aI14930580
aI14140695
aI260959284
aI160720376
aI217309696
aI59557446
aI40912473
aI15022633
aI6531902
aI36125837
aI248481361
aI38507478
aI16122373
aI15978792
aI48744256
aI166143203
aI20343171
aI59010637
aI22652902
aI15021918
aI127899595
aI17761566
aI161580500
aI65698096
aI18094552
aI14073364
aI24789175
aI6508552
aI30073343
aI21718571
aI19430190
aI19985189
aI19605981
aI14757714
aI17969805
aI54646308
aI22652566
aI16403723
aI224079521
aI16742806
aI212800808
aI18650093
aI208361818
aI39151934
aI44682193
aI23833641
aI11695472
aI14173084
aI122448174
aI205388264
aI19303349
aI220062736
aI28339843
aI60698597
aI20473084
aI14090321
aI44678417
aI17462723
aI30519678
aI16098592
aI56164159
aI19023939
aI185613907
aI11382292
aI42915601
aI130617778
aI16478695
aI46213956
aI30513693
aI15345563
aI45510215
aI12520212
aI14194144
aI19396560
aI11621822
aI16594832
aI2729061
aI41287144
aI15950681
aI25458129
aI16191902
aI16314021
aI16247094
aI169021183
aI20737589
aI114429495
aI31583882
aI11731322
aI158414847
aI152570227
aI19022841
aI17002185
aI14067246
aI211081011
aI23991863
aI12609292
aI16398148
aI59031230
aI14139600
aI11435642
aI4816
aI11988052
aI34443218
aI111315936
aI28145061
aI8383592
aI16378267
aI14177942
aI8719302
aI16469809
aI16041234
aI16118472
aI36176898
aI17429832
aI15450660
aI90777697
aI49732023
aI16098834
aI2697691
aI50684256
aI15902877
aI38036043
aI11178672
aI2444931
aI39342600
aI15935927
aI22642788
aI21414576
aI14337131
aI50769309
aI18890779
aI93479945
aI102787318
aI13058782
aI159562452
aI16591728
aI47414159
aI14881478
aI29602818
aI14292458
aI36743910
aI57736980
aI18363255
aI15407699
aI16823185
aI45629254
aI6193742
aI15275677
aI18742394
aI14997400
aI15988283
aI52499546
aI94590693
aI18267544
aI47207717
aI99966080
aI16378093
aI15164565
aI14583266
aI22292430
aI14770470
aI19826122
aI14190948
aI14677919
aI15728161
aI2696831
aI16356190
aI17650854
aI17376893
aI23023236
aI18124790
aI83665853
aI17094311
aI14700316
aI105317752
aI173634807
aI17643749
aI12193342
aI26657119
aI53130511
aI19795789
aI178122080
aI17008482
aI16132588
aI181892739
aI16703353
aI7793902
aI57438788
aI187719555
aI3022191
aI20818801
aI16013368
aI24223641
aI21786618
aI16955991
aI148529707
aI17293897
aI17212474
aI111929982
aI14752085
aI57411021
aI12750
aI14370819
aI15865878
aI91180720
aI774909
aI14287094
aI17824099
aI15949696
aI162152060
aI17757642
aI16303106
aI15634728
aI15973576
aI15584457
aI75028014
aI17329132
aI48587305
aI22986148
aI131497030
aI15458694
aI23365626
aI15757306
aI142143804
aI153251103
aI20343694
aI24268066
aI30000912
aI19884044
aI15455314
aI15667291
aI15087011
aI12245632
aI15470688
aI14606079
aI30001583
aI154963086
aI60777394
aI15335662
aI13393052
aI189376144
aI17001490
aI102581666
aI15458181
aI7848802
aI14146966
aI16893491
aI50149303
aI63004503
aI22737278
aI116416014
aI44917949
aI32394432
aI20713331
aI53648883
aI72227167
aI40807200
aI16055954
aI16246715
aI71139326
aI20463418
aI18634085
aI10085872
aI79326565
aI17855968
aI15985111
aI14529929
aI15473574
aI15727317
aI14246001
aI24773177
aI10778572
aI18644548
aI14855994
aI18464266
aI53789862
aI20479813
aI14455321
aI21982720
aI27221778
aI33986037
aI11388132
aI14588748
aI38271276
aI135897307
aI55355654
aI20508720
aI15978412
aI14834340
aI16129920
aI18622869
aI24431892
aI28241866
aI16076272
aI15691197
aI23839835
aI61249886
aI171520279
aI34643610
aI21268897
aI16589206
aI169182727
aI18276341
aI16017475
aI36996253
aI13566
aI45943310
aI16002085
aI18035530
aI41192995
aI14515799
aI59159771
aI928481
aI10117892
aI38975663
aI1947301
aI18510860
aI14513611
aI38737553
aI16455297
aI18706257
aI20731951
aI62665162
aI15220768
aI15731368
aI20794926
aI14478260
aI7794142
aI15763959
aI25913058
aI14885620
aI14269172
aI15446531
aI14717197
aI27511061
aI16935292
aI18851248
aI14296273
aI28657802
aI6721522
aI16799023
aI13493302
aI16076032
aI17006157
aI138241313
aI73416019
aI16326882
aI52898350
aI44552852
a.