c__builtin__
set
p0
((lp1
I57917441
aI229144579
aI2431889416
aI9635852
aI95453197
aI709732368
aI18348376
aI14370819
aI41891860
aI49164309
aI15865878
aI121489431
aI14329880
aI18890779
aI208361818
aI18905119
aI13058782
aI21293089
aI15224867
aI124690469
aI25108518
aI52615210
aI20731951
aI70989872
aI13676552
aI118177842
aI111712308
aI61249886
aI206254134
aI93479945
aI384915512
aI21016633
aI39151934
aI14626143
aI150808638
aI92063809
aI23025730
aI19023939
aI23951431
aI15939596
aI17004618
aI37501003
aI22059385
aI17830242
aI405736720
aI840183888
aI315889745
aI108617810
aI792659
aI22870101
aI23410776
aI622024793
aI23601242
aI15667291
aI17328222
aI18634085
aI15470688
aI380160016
aI73416019
aI22642788
aI69193833
aI49633388
aI24932461
aI12849262
aI14246001
aI377430134
aI16228479
aI26657119
aI16591728
aI14155907
aI212800808
aI22644417
aI462319753
aI17688714
aI16742541
aI16007312
aI34103443
aI50381166
aI415854742
aI15458181
aI41814169
aI59865242
aI204937371
aI15902877
aI173634807
aI16823185
aI17604772
aI111315936
aI16589206
aI757917865
aI371032581
aI103450994
aI38975663
aI16744136
aI321589427
aI16031927
aI69181624
aI1634248890
aI542933180
aI154045477
aI29538495
aI15220768
aI377725125
aI46424263
aI15859912
aI250734793
aI17150156
aI376445133
aI14764240
aI105317752
aI714891474
aI12331222
aI263480697
aI258654427
aI8192222
aI266715173
aI335972576
aI15818978
aI15173859
aI25757924
aI17643749
aI14266598
aI27239121
aI852269288
aI116009193
aI14766317
aI15335662
aI25368431
aI15931637
aI102787318
aI159562452
aI233865466
aI746026026
aI17006157
aI232145151
aI33276161
aI8548612
aI17580293
aI55355654
aI28796289
aI17074440
aI16537865
aI2568461
aI27511061
aI902963478
aI171520279
aI107137730
aI15935927
aI237119773
aI1383127326
aI18979104
aI20508720
aI41177378
aI50325797
aI61681958
aI240369959
aI634734888
aI38271276
aI385761581
aI122448174
aI65698096
aI525422897
aI17144115
aI14478046
aI23970102
aI22184329
aI21844284
aI15845694
aI15978792
aI82217548
aI133048642
aI184090947
aI24615237
aI52105542
aI928481
aI25344328
aI118530377
aI1467777354
aI34642256
aI28819793
aI348010835
aI14752085
aI122868055
aI194713944
aI30249306
aI16077147
aI22047070
aI92854623
aI188809568
aI26687888
aI167792994
aI17824099
aI14190948
aI343544165
aI218597735
aI963176808
aI30490986
aI203071854
aI19263858
aI1027678579
aI313557365
aI22866294
aI1001734520
aI19347833
aI11731322
aI2355032443
aI16935292
aI38507478
aI30519678
aI18839937
aI770648450
aI20343171
aI17432964
aI16742806
aI21005767
aI233806913
aI15384969
aI380346763
aI73260098
aI906819984
aI16017475
aI18622869
aI724416918
aI50395544
aI16378267
aI5611932
aI16191902
aI53789862
aI7868832
aI21268897
aI158414847
aI48802204
aI14296273
aI82653611
aI34707884
aI30001583
aI539607474
aI297093555
aI49732023
aI198584761
aI16002085
aI99846591
aI392219074
aI20406724
aI241288268
aI62665162
aI177052107
aI12750
aI96637391
aI15087011
aI184136149
aI17453527
aI18094552
aI22986148
aI369756634
aI2697691
aI26862045
aI19826122
aI18641382
aI16146513
aI205388264
aI52189673
aI38535659
aI37917164
aI774909
aI22063600
aI27668977
aI72227167
aI24932852
aI48081662
aI21928361
aI1543877113
aI169021183
aI117543420
aI465158654
aI21266943
aI217309696
aI89820928
aI160010755
aI14115926
aI15983110
aI25946632
aI601803276
aI414962189
aI45943310
aI248239533
aI15407632
aI21111896
aI17418770
aI2189535763
aI25342485
aI16409110
aI14455321
aI219322906
aI973087261
aI531239062
aI66533920
aI19733025
aI6508552
aI220727844
aI15022633
aI121827883
aI130617778
aI52898350
aI18164272
aI357071409
aI48144950
aI362682936
aI24773177
aI5743162
aI16122373
aI47438401
aI330502724
aI4035141
aI90777697
aI1260571208
aI65946380
aI38036043
aI134599244
aI71139326
aI913447502
aI14344784
aI2574103121
aI48523859
aI16955991
aI84030041
aI43464027
aI14957147
aI27071068
aI30000912
aI29283
aI42915601
aI14615094
aI88392301
aI18989685
aI2182412918
aI24392311
aI2525375252
aI33792634
aI15893116
aI111929982
aI15161984
aI65045121
aI77314692
aI10117892
aI16960279
aI1105302156
aI2687990413
aI36764306
aI431700627
aI14930580
aI460470940
aI32078497
aI152570227
aI14834340
aI65016485
aI15731368
aI116513449
aI49697450
aI804295
aI18393773
aI83876527
aI11178672
aI24044209
aI613612212
aI581053112
aI1117702844
aI371828170
aI199400127
aI290101954
aI563819203
aI14881478
aI16118472
aI85322445
aI4816
aI19608273
aI147092180
aI15727317
aI41634520
aI71294756
aI5692122
aI20728540
aI304814848
aI243030753
aI20890869
aI36743910
aI25458129
aI19608297
aI2517988075
aI1737675500
aI15503210
aI75357513
aI48132847
aI178122080
aI13393052
aI14885620
aI14412533
aI23365626
aI15041273
aI21144314
aI14757714
aI16132588
aI3057617662
aI87952127
aI48278272
aI85867265
aI628996868
aI29770501
aI339925767
aI148841224
aI15985111
aI161086220
aI234535697
aI16378093
aI248937236
aI338608917
aI95288087
aI143211292
aI40807200
aI19985189
aI19430190
aI19605981
aI756331316
aI550612446
aI88673078
aI53144377
aI121179433
aI167594814
aI21619519
aI29602818
aI17855968
aI24865602
aI46213956
aI5907272
aI18035530
aI19377975
aI14588748
aI14583266
aI2423872334
aI60625744
aI153251103
aI475286355
aI15950681
aI20463418
aI16356190
aI93236063
aI17488736
aI25003152
aI7848802
aI11107172
aI524434283
aI460858220
aI18776942
aI336218991
aI84816752
aI20818801
aI369206130
aI6531902
aI846187382
aI313070057
aI57438788
aI32412540
aI14292458
aI111339670
aI18587457
aI38710152
aI236026761
aI12764042
aI297556877
aI243291022
aI47414159
aI28657802
aI59157393
aI21912466
aI334332822
aI142653593
aI14173084
aI161309598
aI20479813
aI857090977
aI45629254
aI50684256
aI14302121
aI52652974
aI1286312880
aI60777394
aI53648883
aI14478260
aI19303349
aI118938550
aI186545080
aI20343694
aI16569274
aI47408060
aI83665853
aI822158270
aI61041599
aI14529929
aI395172492
aI1300057027
aI8719302
aI15649736
aI15776713
aI16013368
aI883153867
aI11382292
aI19795789
aI17650854
aI44682193
aI184515406
aI46877654
aI171245049
aI20794926
aI22320092
aI149857245
aI14513611
aI24843232
aI104868688
aI224320485
aI15407699
aI99718121
aI121215979
aI15334380
aI145097709
aI39189488
aI319675272
aI44552852
aI247323635
aI152103928
aI61083476
aI30073343
aI11988052
aI383071230
aI13493302
aI36176898
aI55575557
aI77540359
aI176745481
aI600581963
aI18510860
aI14245378
aI15694863
aI220062736
aI18570258
aI278365203
aI14717197
aI18982396
aI192267295
aI145863712
aI308081840
aI176233506
aI115441158
aI759786534
aI23833641
aI792329258
aI169182727
aI38214152
aI260959284
aI168295477
aI22023222
aI20665221
aI17212474
aI30513693
aI16076272
aI32207712
aI124574786
aI131497030
aI22381639
aI101557323
aI197434444
aI17008482
aI55411896
aI15455314
aI338779219
aI18236500
aI22737278
aI164412502
aI51080280
aI52499546
aI33786971
aI453319164
aI20247648
aI18064482
aI4099171
aI14677919
aI2729061
aI59547153
aI8383592
aI12655722
aI14337131
aI373578868
aI318518392
aI14073364
aI18742394
aI19168381
aI99966080
aI16211073
aI226346115
aI34423941
aI25889985
aI70706313
aI478203018
aI181892739
aI54619276
aI36125837
aI154963086
aI171283600
aI810129
aI15164565
aI309126296
aI25758575
aI363809948
aI36996253
aI50496857
aI369278149
aI959648929
aI16594832
aI16041234
aI40754566
aI50310311
aI327508167
aI275186860
aI217064621
aI19884044
aI117810351
aI245107888
aI24612021
aI12520212
aI268282057
aI120181944
aI16014522
aI275393723
aI460338364
aI44917949
aI32394432
aI150151712
aI17425602
aI9692022
aI15458694
aI15973576
aI15584457
aI18363255
aI241056520
aI109616337
aI48587305
aI188587219
aI13524182
aI275162328
aI54646308
aI59159771
aI329030876
aI15480029
aI38010785
aI166143203
aI11388132
aI515931365
aI21220583
aI23588075
aI282735852
aI7793902
aI36918513
aI46458101
aI14195941
aI724575481
aI399156475
aI20473084
aI30050899
aI13566
aI20622592
aI16129920
aI148529707
aI14056708
aI466519303
aI489798785
aI16403723
aI138241313
aI255882510
aI53130511
aI824859920
aI44678417
aI22416658
aI18544958
aI24431892
aI16565806
aI14140695
aI40197402
aI50769180
aI1459232030
aI167148421
aI16098592
aI29465136
aI24268066
aI135897307
aI47207717
aI279760167
aI14046504
aI174880041
aI905028906
aI348149036
aI557180207
aI11621822
aI30949256
aI552119602
aI305766622
aI464076088
aI20737589
aI68799810
aI9715012
aI289420613
aI79326565
aI1372792136
aI1240386889
aI14368074
aI23991863
aI60622156
aI16326882
aI95418595
aI20419924
aI88374158
aI1283861846
aI50149303
aI4207961
aI566603099
aI23047519
aI429843808
aI18963809
aI23995748
aI448554341
aI32331111
aI87502184
aI7306602
aI2738013547
aI3022191
aI11695472
aI123282802
aI2329066872
aI35474809
aI10886522
aI74323323
aI40758652
aI2373784958
aI137395584
aI22211969
aI17001490
aI14770470
aI262817156
aI143560069
aI14202246
aI65801609
aI22883726
aI365606287
aI14997400
aI162895251
aI14146966
aI18267544
aI21093785
aI16211356
aI50769309
aI309937733
aI102581666
aI30752163
aI50367908
aI28145061
aI78890225
aI18771370
aI45510215
aI494583213
aI606776750
aI18851248
aI28241866
aI193398195
aI125115830
aI17293897
aI38737553
aI14855994
aI18730427
aI15691197
aI48973246
aI53892543
aI14927297
aI447860162
aI17462723
aI15949253
aI203060129
aI48166344
aI1572823628
aI37551562
aI869825995
aI16664012
aI57411021
aI59010637
aI41431213
aI17006036
aI6193742
aI16195030
aI15822295
aI130936280
aI171691486
aI14194144
aI51426896
aI18914786
aI75033178
aI15473574
aI358367825
aI41287144
aI27901418
aI111631851
aI1611519468
aI10085872
aI7845362
aI93191667
aI47705588
aI33986037
aI160720376
aI85913172
aI68261372
aI21982720
aI213722368
aI31190530
aI16317345
aI301012485
aI20876806
aI384923143
aI15978412
aI18464266
aI16160267
aI38413836
aI116416014
aI65375759
aI21708305
aI16098834
aI385642004
aI16973333
aI353318426
aI16303106
aI356564509
aI20708895
aI16478695
aI15728161
aI41192995
aI61550116
aI5502502
aI21718571
aI15246892
aI56223278
aI202225200
aI38060296
aI16893491
aI391583285
aI114429495
aI18468410
aI15988283
aI12193342
aI874911296
aI18644548
aI52520517
aI59557446
aI1081296481
aI17174089
aI2225653322
aI27793335
aI338849357
aI2421272142
aI15450660
aI41363024
aI248481361
aI18732627
aI385799764
aI378707542
aI14515799
aI115463768
aI40912473
aI60698597
aI19519071
aI15642209
aI14335586
aI226963044
aI15757306
aI603803238
aI17004139
aI14139600
aI105334381
aI335369838
aI221961841
aI38773694
aI18355386
aI2444931
aI11435642
aI23839835
aI162152060
aI17376893
aI435287678
aI2696831
aI16455297
aI330361451
aI23023236
aI15675013
aI65491933
aI189376144
aI182054545
aI3369330322
aI17290902
aI15529625
aI34643610
aI14067246
aI982084890
aI17757642
aI14606079
aI316901024
aI224079521
aI2319314594
aI16019108
aI16314021
aI12609292
aI313091751
aI28944041
aI1063526059
aI1723764397
aI91180720
aI15906481
aI14483124
aI17761566
aI552158902
aI14269172
aI125726393
aI318426183
aI21414576
aI168894140
aI75028014
aI59031230
aI14090321
aI19119809
aI24454091
aI21307076
aI18974406
aI437561031
aI26603208
aI17002185
aI628698827
aI86224590
aI15982292
aI393705173
aI633
aI308631257
aI15808218
aI14651099
aI59145948
aI258453217
aI25913058
aI1140451
aI115132132
aI94590693
aI14287094
aI353375975
aI159770347
aI34443218
aI380440302
aI16598767
aI49184040
aI340418291
aI23353857
aI43532023
aI20707070
aI23813887
aI170254080
aI56768257
aI47349506
aI375760645
aI174272266
aI167501580
aI15446531
aI14858000
aI340441440
aI27221778
aI28339843
aI57736980
aI316389142
aI323348247
aI84653850
aI16799023
aI14700316
aI15275677
aI7900962
aI157075236
aI34002725
aI26109736
aI359509980
aI116625196
aI27737053
aI16035632
aI16469809
aI24016690
aI211081011
aI332914487
aI25024313
aI15415098
aI31583882
aI56164159
aI48744256
aI194129729
aI16398148
aI16247094
aI1374150470
aI15763959
aI21759817
aI156370763
aI51892045
aI13496142
aI17969805
aI18706257
aI385150802
aI550010708
aI63004503
aI17094311
aI17092444
aI15021918
aI23725029
aI908496738
aI46229870
aI33347217
aI142143804
aI108691306
aI16055954
aI15607662
aI62381935
aI39309168
aI14208881
aI20713331
aI24721726
aI7794142
aI16703353
aI16076032
aI24789175
aI15949696
aI912777090
aI187719555
aI22652566
aI39342600
aI47652744
aI17329132
aI53660409
aI20608910
aI18650093
aI212657985
aI429227921
aI15941955
aI55711637
aI35831704
aI24223641
aI58113946
aI15345563
aI14177942
aI161580500
aI246941599
aI45585297
aI571096993
aI114028457
aI17429832
aI224739244
aI575831983
aI14269768
aI185613907
aI81381301
aI75630518
aI16151881
aI24922040
aI27744185
aI16246715
aI142856124
aI14116797
aI18276341
aI21295042
aI28409795
aI72763332
aI13967302
aI481562567
aI43694024
aI141834186
aI127899595
aI10778572
aI22292430
aI19396560
aI17928145
aI5971922
aI389556180
aI19022841
aI16021468
aI389658589
aI1947301
aI15634728
aI82296803
aI241252324
aI48203749
aI22652902
aI3459051
aI29745133
aI6721522
aI22208499
aI602781685
aI18124790
aI12245632
aI21786618
aI224698363
aI812185596
aI1078145022
aI15347711
atp2
Rp3
.